; Function Attrs: mustprogress nounwind uwtable
define noundef nonnull align 8 dereferenceable(16) ptr @_ZN2cv4gapi5fluid4ViewaSEOS2_(ptr noundef nonnull returned align 8 dereferenceable(16) initializes((8, 16)) %0, ptr noundef nonnull align 8 captures(none) dereferenceable(16) %1) local_unnamed_addr #18 align 2 personality ptr @__gxx_personality_v0 {
  %3 = load ptr, ptr %1, align 8, !tbaa !138
  store ptr null, ptr %1, align 8, !tbaa !138
  %4 = load ptr, ptr %0, align 8, !tbaa !138
  store ptr %3, ptr %0, align 8, !tbaa !138
  %.not.i.i.i.i = icmp eq ptr %4, null
  br i1 %.not.i.i.i.i, label %_ZNSt10unique_ptrIN2cv4gapi5fluid4View4PrivESt14default_deleteIS4_EEaSEOS7_.exit, label %_ZNKSt14default_deleteIN2cv4gapi5fluid4View4PrivEEclEPS4_.exit.i.i.i.i

_ZNKSt14default_deleteIN2cv4gapi5fluid4View4PrivEEclEPS4_.exit.i.i.i.i: ; preds = %2
  %5 = load ptr, ptr %4, align 8, !tbaa !13
  %6 = getelementptr inbounds nuw i8, ptr %5, i64 8
  %7 = load ptr, ptr %6, align 8
  tail call void %7(ptr noundef nonnull align 8 dereferenceable(108) %4) #30
  br label %_ZNSt10unique_ptrIN2cv4gapi5fluid4View4PrivESt14default_deleteIS4_EEaSEOS7_.exit

_ZNSt10unique_ptrIN2cv4gapi5fluid4View4PrivESt14default_deleteIS4_EEaSEOS7_.exit: ; preds = %2, %_ZNKSt14default_deleteIN2cv4gapi5fluid4View4PrivEEclEPS4_.exit.i.i.i.i
  %8 = getelementptr inbounds nuw i8, ptr %1, i64 8
  %9 = load ptr, ptr %8, align 8, !tbaa !165
  %10 = getelementptr inbounds nuw i8, ptr %0, i64 8
  store ptr %9, ptr %10, align 8, !tbaa !165
  ret ptr %0
}